; ModuleID = '31/1242.c'
source_filename = "31/1242.c"
target datalayout = "e-m:e-p270:32:32-p271:32:32-p272:64:64-i64:64-f80:128-n8:16:32:64-S128"
target triple = "x86_64-pc-linux-gnu"

%struct.student = type { [100 x i8], %struct.student* }

@.str = private unnamed_addr constant [4 x i8] c"%s\0A\00", align 1

; Function Attrs: noinline nounwind uwtable
define dso_local i32 @main() #0 {
  %1 = alloca i32, align 4
  %2 = alloca i32, align 4
  %3 = alloca %struct.student*, align 8
  %4 = alloca %struct.student*, align 8
  %5 = alloca %struct.student*, align 8
  %6 = alloca %struct.student*, align 8
  store i32 0, i32* %1, align 4
  %7 = call noalias i8* @malloc(i64 112) #3
  %8 = bitcast i8* %7 to %struct.student*
  store %struct.student* %8, %struct.student** %4, align 8
  store %struct.student* %8, %struct.student** %3, align 8
  %9 = load %struct.student*, %struct.student** %3, align 8
  %10 = getelementptr inbounds %struct.student, %struct.student* %9, i32 0, i32 0
  %11 = getelementptr inbounds [100 x i8], [100 x i8]* %10, i64 0, i64 0
  %12 = call i32 (i8*, ...) bitcast (i32 (...)* @gets to i32 (i8*, ...)*)(i8* %11)
  %13 = load %struct.student*, %struct.student** %3, align 8
  %14 = getelementptr inbounds %struct.student, %struct.student* %13, i32 0, i32 1
  store %struct.student* null, %struct.student** %14, align 8
  store i32 1, i32* %2, align 4
  br label %15

15:                                               ; preds = %40, %0
  %16 = load i32, i32* %2, align 4
  %17 = icmp slt i32 %16, 1000
  br i1 %17, label %18, label %43

18:                                               ; preds = %15
  %19 = call noalias i8* @malloc(i64 112) #3
  %20 = bitcast i8* %19 to %struct.student*
  store %struct.student* %20, %struct.student** %3, align 8
  %21 = load %struct.student*, %struct.student** %4, align 8
  %22 = load %struct.student*, %struct.student** %3, align 8
  %23 = getelementptr inbounds %struct.student, %struct.student* %22, i32 0, i32 1
  store %struct.student* %21, %struct.student** %23, align 8
  %24 = load %struct.student*, %struct.student** %3, align 8
  store %struct.student* %24, %struct.student** %4, align 8
  %25 = load %struct.student*, %struct.student** %3, align 8
  %26 = getelementptr inbounds %struct.student, %struct.student* %25, i32 0, i32 0
  %27 = getelementptr inbounds [100 x i8], [100 x i8]* %26, i64 0, i64 0
  %28 = call i32 (i8*, ...) bitcast (i32 (...)* @gets to i32 (i8*, ...)*)(i8* %27)
  %29 = load %struct.student*, %struct.student** %3, align 8
  %30 = getelementptr inbounds %struct.student, %struct.student* %29, i32 0, i32 0
  %31 = getelementptr inbounds [100 x i8], [100 x i8]* %30, i64 0, i64 0
  %32 = load i8, i8* %31, align 8
  %33 = sext i8 %32 to i32
  %34 = icmp eq i32 %33, 101
  br i1 %34, label %35, label %39

35:                                               ; preds = %18
  %36 = load %struct.student*, %struct.student** %3, align 8
  %37 = getelementptr inbounds %struct.student, %struct.student* %36, i32 0, i32 1
  %38 = load %struct.student*, %struct.student** %37, align 8
  store %struct.student* %38, %struct.student** %5, align 8
  br label %43

39:                                               ; preds = %18
  br label %40

40:                                               ; preds = %39
  %41 = load i32, i32* %2, align 4
  %42 = add nsw i32 %41, 1
  store i32 %42, i32* %2, align 4
  br label %15

43:                                               ; preds = %35, %15
  %44 = load %struct.student*, %struct.student** %5, align 8
  store %struct.student* %44, %struct.student** %6, align 8
  store i32 1, i32* %2, align 4
  br label %45

45:                                               ; preds = %60, %43
  %46 = load i32, i32* %2, align 4
  %47 = icmp slt i32 %46, 1000
  br i1 %47, label %48, label %63

48:                                               ; preds = %45
  %49 = load %struct.student*, %struct.student** %6, align 8
  %50 = getelementptr inbounds %struct.student, %struct.student* %49, i32 0, i32 0
  %51 = getelementptr inbounds [100 x i8], [100 x i8]* %50, i64 0, i64 0
  %52 = call i32 (i8*, ...) @printf(i8* getelementptr inbounds ([4 x i8], [4 x i8]* @.str, i64 0, i64 0), i8* %51)
  %53 = load %struct.student*, %struct.student** %6, align 8
  %54 = getelementptr inbounds %struct.student, %struct.student* %53, i32 0, i32 1
  %55 = load %struct.student*, %struct.student** %54, align 8
  store %struct.student* %55, %struct.student** %6, align 8
  %56 = load %struct.student*, %struct.student** %6, align 8
  %57 = icmp eq %struct.student* %56, null
  br i1 %57, label %58, label %59

58:                                               ; preds = %48
  br label %63

59:                                               ; preds = %48
  br label %60

60:                                               ; preds = %59
  %61 = load i32, i32* %2, align 4
  %62 = add nsw i32 %61, 1
  store i32 %62, i32* %2, align 4
  br label %45

63:                                               ; preds = %58, %45
  %64 = load i32, i32* %1, align 4
  ret i32 %64
}

; Function Attrs: nounwind
declare dso_local noalias i8* @malloc(i64) #1

declare dso_local i32 @gets(...) #2

declare dso_local i32 @printf(i8*, ...) #2


!llvm.module.flags = !{!0}
!llvm.ident = !{!1}

!0 = !{i32 1, !"wchar_size", i32 4}
!1 = !{!"clang version 10.0.0-4ubuntu1 "}
